target datalayout = "e-m:e-p270:32:32-p271:32:32-p272:64:64-i64:64-i128:128-f80:128-n8:16:32:64-S128"
target triple = "x86_64-pc-linux-gnu"

%struct.env_md_ctx_st = type { ptr, ptr, ptr, ptr }
%struct.hmac_ctx_st = type { ptr, %struct.env_md_ctx_st, %struct.env_md_ctx_st, %struct.env_md_ctx_st }

; Function Attrs: nounwind uwtable
define internal i32 @tls1_P_hash(ptr noundef %0, i64 noundef %1, ptr noundef %2, ptr noundef %3, i64 noundef %4, ptr noundef %5, i64 noundef %6, ptr noundef %7, i64 noundef %8, ptr noundef %9, i64 noundef %10) #0 {
  %12 = alloca i32, align 4
  %13 = alloca ptr, align 8
  %14 = alloca i64, align 8
  %15 = alloca ptr, align 8
  %16 = alloca ptr, align 8
  %17 = alloca i64, align 8
  %18 = alloca ptr, align 8
  %19 = alloca i64, align 8
  %20 = alloca ptr, align 8
  %21 = alloca i64, align 8
  %22 = alloca ptr, align 8
  %23 = alloca i64, align 8
  %24 = alloca %struct.hmac_ctx_st, align 8
  %25 = alloca %struct.hmac_ctx_st, align 8
  %26 = alloca %struct.hmac_ctx_st, align 8
  %27 = alloca [64 x i8], align 16
  %28 = alloca i32, align 4
  %29 = alloca i32, align 4
  %30 = alloca i64, align 8
  %31 = alloca i32, align 4
  %32 = alloca [64 x i8], align 16
  %33 = alloca i32, align 4
  %34 = alloca i32, align 4
  store ptr %0, ptr %13, align 8, !tbaa !57
  store i64 %1, ptr %14, align 8, !tbaa !53
  store ptr %2, ptr %15, align 8, !tbaa !78
  store ptr %3, ptr %16, align 8, !tbaa !57
  store i64 %4, ptr %17, align 8, !tbaa !53
  store ptr %5, ptr %18, align 8, !tbaa !57
  store i64 %6, ptr %19, align 8, !tbaa !53
  store ptr %7, ptr %20, align 8, !tbaa !57
  store i64 %8, ptr %21, align 8, !tbaa !53
  store ptr %9, ptr %22, align 8, !tbaa !57
  store i64 %10, ptr %23, align 8, !tbaa !53
  call void @llvm.lifetime.start.p0(i64 104, ptr %24) #7
  call void @llvm.lifetime.start.p0(i64 104, ptr %25) #7
  call void @llvm.lifetime.start.p0(i64 104, ptr %26) #7
  call void @llvm.lifetime.start.p0(i64 64, ptr %27) #7
  call void @llvm.lifetime.start.p0(i64 4, ptr %28) #7
  call void @llvm.lifetime.start.p0(i64 4, ptr %29) #7
  store i32 0, ptr %29, align 4, !tbaa !11
  call void @llvm.lifetime.start.p0(i64 8, ptr %30) #7
  %35 = load ptr, ptr %15, align 8, !tbaa !78
  %36 = call i64 @EVP_MD_size(ptr noundef %35)
  store i64 %36, ptr %30, align 8, !tbaa !53
  call void @HMAC_CTX_init(ptr noundef %24)
  call void @HMAC_CTX_init(ptr noundef %25)
  call void @HMAC_CTX_init(ptr noundef %26)
  %37 = load ptr, ptr %16, align 8, !tbaa !57
  %38 = load i64, ptr %17, align 8, !tbaa !53
  %39 = load ptr, ptr %15, align 8, !tbaa !78
  %40 = call i32 @HMAC_Init_ex(ptr noundef %26, ptr noundef %37, i64 noundef %38, ptr noundef %39, ptr noundef null)
  %41 = icmp ne i32 %40, 0
  br i1 %41, label %42, label %64

42:                                               ; preds = %11
  %43 = call i32 @HMAC_CTX_copy_ex(ptr noundef %24, ptr noundef %26)
  %44 = icmp ne i32 %43, 0
  br i1 %44, label %45, label %64

45:                                               ; preds = %42
  %46 = load ptr, ptr %18, align 8, !tbaa !57
  %47 = load i64, ptr %19, align 8, !tbaa !53
  %48 = call i32 @HMAC_Update(ptr noundef %24, ptr noundef %46, i64 noundef %47)
  %49 = icmp ne i32 %48, 0
  br i1 %49, label %50, label %64

50:                                               ; preds = %45
  %51 = load ptr, ptr %20, align 8, !tbaa !57
  %52 = load i64, ptr %21, align 8, !tbaa !53
  %53 = call i32 @HMAC_Update(ptr noundef %24, ptr noundef %51, i64 noundef %52)
  %54 = icmp ne i32 %53, 0
  br i1 %54, label %55, label %64

55:                                               ; preds = %50
  %56 = load ptr, ptr %22, align 8, !tbaa !57
  %57 = load i64, ptr %23, align 8, !tbaa !53
  %58 = call i32 @HMAC_Update(ptr noundef %24, ptr noundef %56, i64 noundef %57)
  %59 = icmp ne i32 %58, 0
  br i1 %59, label %60, label %64

60:                                               ; preds = %55
  %61 = getelementptr inbounds [64 x i8], ptr %27, i64 0, i64 0
  %62 = call i32 @HMAC_Final(ptr noundef %24, ptr noundef %61, ptr noundef %28)
  %63 = icmp ne i32 %62, 0
  br i1 %63, label %65, label %64

64:                                               ; preds = %60, %55, %50, %45, %42, %11
  br label %155

65:                                               ; preds = %60
  br label %66

66:                                               ; preds = %153, %65
  call void @llvm.lifetime.start.p0(i64 4, ptr %31) #7
  call void @llvm.lifetime.start.p0(i64 64, ptr %32) #7
  %67 = call i32 @HMAC_CTX_copy_ex(ptr noundef %24, ptr noundef %26)
  %68 = icmp ne i32 %67, 0
  br i1 %68, label %69, label %101

69:                                               ; preds = %66
  %70 = getelementptr inbounds [64 x i8], ptr %27, i64 0, i64 0
  %71 = load i32, ptr %28, align 4, !tbaa !11
  %72 = zext i32 %71 to i64
  %73 = call i32 @HMAC_Update(ptr noundef %24, ptr noundef %70, i64 noundef %72)
  %74 = icmp ne i32 %73, 0
  br i1 %74, label %75, label %101

75:                                               ; preds = %69
  %76 = load i64, ptr %14, align 8, !tbaa !53
  %77 = load i64, ptr %30, align 8, !tbaa !53
  %78 = icmp ugt i64 %76, %77
  br i1 %78, label %79, label %82

79:                                               ; preds = %75
  %80 = call i32 @HMAC_CTX_copy_ex(ptr noundef %25, ptr noundef %24)
  %81 = icmp ne i32 %80, 0
  br i1 %81, label %82, label %101

82:                                               ; preds = %79, %75
  %83 = load ptr, ptr %18, align 8, !tbaa !57
  %84 = load i64, ptr %19, align 8, !tbaa !53
  %85 = call i32 @HMAC_Update(ptr noundef %24, ptr noundef %83, i64 noundef %84)
  %86 = icmp ne i32 %85, 0
  br i1 %86, label %87, label %101

87:                                               ; preds = %82
  %88 = load ptr, ptr %20, align 8, !tbaa !57
  %89 = load i64, ptr %21, align 8, !tbaa !53
  %90 = call i32 @HMAC_Update(ptr noundef %24, ptr noundef %88, i64 noundef %89)
  %91 = icmp ne i32 %90, 0
  br i1 %91, label %92, label %101

92:                                               ; preds = %87
  %93 = load ptr, ptr %22, align 8, !tbaa !57
  %94 = load i64, ptr %23, align 8, !tbaa !53
  %95 = call i32 @HMAC_Update(ptr noundef %24, ptr noundef %93, i64 noundef %94)
  %96 = icmp ne i32 %95, 0
  br i1 %96, label %97, label %101

97:                                               ; preds = %92
  %98 = getelementptr inbounds [64 x i8], ptr %32, i64 0, i64 0
  %99 = call i32 @HMAC_Final(ptr noundef %24, ptr noundef %98, ptr noundef %31)
  %100 = icmp ne i32 %99, 0
  br i1 %100, label %102, label %101

101:                                              ; preds = %97, %92, %87, %82, %79, %69, %66
  store i32 2, ptr %34, align 4
  br label %151

102:                                              ; preds = %97
  %103 = load i32, ptr %31, align 4, !tbaa !11
  %104 = zext i32 %103 to i64
  %105 = load i64, ptr %14, align 8, !tbaa !53
  %106 = icmp ugt i64 %104, %105
  br i1 %106, label %107, label %110

107:                                              ; preds = %102
  %108 = load i64, ptr %14, align 8, !tbaa !53
  %109 = trunc i64 %108 to i32
  store i32 %109, ptr %31, align 4, !tbaa !11
  br label %110

110:                                              ; preds = %107, %102
  call void @llvm.lifetime.start.p0(i64 4, ptr %33) #7
  store i32 0, ptr %33, align 4, !tbaa !11
  br label %111

111:                                              ; preds = %129, %110
  %112 = load i32, ptr %33, align 4, !tbaa !11
  %113 = load i32, ptr %31, align 4, !tbaa !11
  %114 = icmp ult i32 %112, %113
  br i1 %114, label %115, label %132

115:                                              ; preds = %111
  %116 = load i32, ptr %33, align 4, !tbaa !11
  %117 = zext i32 %116 to i64
  %118 = getelementptr inbounds nuw [64 x i8], ptr %32, i64 0, i64 %117
  %119 = load i8, ptr %118, align 1, !tbaa !13
  %120 = zext i8 %119 to i32
  %121 = load ptr, ptr %13, align 8, !tbaa !57
  %122 = load i32, ptr %33, align 4, !tbaa !11
  %123 = zext i32 %122 to i64
  %124 = getelementptr inbounds nuw i8, ptr %121, i64 %123
  %125 = load i8, ptr %124, align 1, !tbaa !13
  %126 = zext i8 %125 to i32
  %127 = xor i32 %126, %120
  %128 = trunc i32 %127 to i8
  store i8 %128, ptr %124, align 1, !tbaa !13
  br label %129

129:                                              ; preds = %115
  %130 = load i32, ptr %33, align 4, !tbaa !11
  %131 = add i32 %130, 1
  store i32 %131, ptr %33, align 4, !tbaa !11
  br label %111, !llvm.loop !79

132:                                              ; preds = %111
  %133 = load i32, ptr %31, align 4, !tbaa !11
  %134 = load ptr, ptr %13, align 8, !tbaa !57
  %135 = zext i32 %133 to i64
  %136 = getelementptr inbounds nuw i8, ptr %134, i64 %135
  store ptr %136, ptr %13, align 8, !tbaa !57
  %137 = load i32, ptr %31, align 4, !tbaa !11
  %138 = zext i32 %137 to i64
  %139 = load i64, ptr %14, align 8, !tbaa !53
  %140 = sub i64 %139, %138
  store i64 %140, ptr %14, align 8, !tbaa !53
  %141 = load i64, ptr %14, align 8, !tbaa !53
  %142 = icmp eq i64 %141, 0
  br i1 %142, label %143, label %144

143:                                              ; preds = %132
  store i32 3, ptr %34, align 4
  br label %150

144:                                              ; preds = %132
  %145 = getelementptr inbounds [64 x i8], ptr %27, i64 0, i64 0
  %146 = call i32 @HMAC_Final(ptr noundef %25, ptr noundef %145, ptr noundef %28)
  %147 = icmp ne i32 %146, 0
  br i1 %147, label %149, label %148

148:                                              ; preds = %144
  store i32 2, ptr %34, align 4
  br label %150

149:                                              ; preds = %144
  store i32 0, ptr %34, align 4
  br label %150

150:                                              ; preds = %148, %149, %143
  call void @llvm.lifetime.end.p0(i64 4, ptr %33) #7
  br label %151

151:                                              ; preds = %101, %150
  call void @llvm.lifetime.end.p0(i64 64, ptr %32) #7
  call void @llvm.lifetime.end.p0(i64 4, ptr %31) #7
  %152 = load i32, ptr %34, align 4
  switch i32 %152, label %158 [
    i32 0, label %153
    i32 3, label %154
    i32 2, label %155
  ]

153:                                              ; preds = %151
  br label %66

154:                                              ; preds = %151
  store i32 1, ptr %29, align 4, !tbaa !11
  br label %155

155:                                              ; preds = %154, %151, %64
  call void @HMAC_CTX_cleanup(ptr noundef %24)
  call void @HMAC_CTX_cleanup(ptr noundef %25)
  call void @HMAC_CTX_cleanup(ptr noundef %26)
  %156 = getelementptr inbounds [64 x i8], ptr %27, i64 0, i64 0
  call void @OPENSSL_cleanse(ptr noundef %156, i64 noundef 64)
  %157 = load i32, ptr %29, align 4, !tbaa !11
  store i32 %157, ptr %12, align 4
  store i32 1, ptr %34, align 4
  br label %158

158:                                              ; preds = %155, %151
  call void @llvm.lifetime.end.p0(i64 8, ptr %30) #7
  call void @llvm.lifetime.end.p0(i64 4, ptr %29) #7
  call void @llvm.lifetime.end.p0(i64 4, ptr %28) #7
  call void @llvm.lifetime.end.p0(i64 64, ptr %27) #7
  call void @llvm.lifetime.end.p0(i64 104, ptr %26) #7
  call void @llvm.lifetime.end.p0(i64 104, ptr %25) #7
  call void @llvm.lifetime.end.p0(i64 104, ptr %24) #7
  %159 = load i32, ptr %12, align 4
  ret i32 %159
}