; Function Attrs: nounwind uwtable
define internal fastcc range(i32 0, 2) i32 @tls1_P_hash(ptr noundef captures(none) %0, i64 noundef range(i64 1, 0) %1, ptr noundef %2, ptr noundef %3, i64 noundef %4, ptr noundef %5, i64 noundef %6, ptr noundef %7, i64 noundef %8, ptr noundef %9, i64 noundef %10) unnamed_addr #0 {
  %12 = alloca %struct.hmac_ctx_st, align 8
  %13 = alloca %struct.hmac_ctx_st, align 8
  %14 = alloca %struct.hmac_ctx_st, align 8
  %15 = alloca [64 x i8], align 16
  %16 = alloca i32, align 4
  %17 = alloca i32, align 4
  %18 = alloca [64 x i8], align 16
  call void @llvm.lifetime.start.p0(i64 104, ptr nonnull %12) #8
  call void @llvm.lifetime.start.p0(i64 104, ptr nonnull %13) #8
  call void @llvm.lifetime.start.p0(i64 104, ptr nonnull %14) #8
  call void @llvm.lifetime.start.p0(i64 64, ptr nonnull %15) #8
  call void @llvm.lifetime.start.p0(i64 4, ptr nonnull %16) #8
  %19 = tail call i64 @EVP_MD_size(ptr noundef %2) #8
  call void @HMAC_CTX_init(ptr noundef nonnull %12) #8
  call void @HMAC_CTX_init(ptr noundef nonnull %13) #8
  call void @HMAC_CTX_init(ptr noundef nonnull %14) #8
  %20 = call i32 @HMAC_Init_ex(ptr noundef nonnull %14, ptr noundef %3, i64 noundef %4, ptr noundef %2, ptr noundef null) #8
  %.not = icmp eq i32 %20, 0
  br i1 %.not, label %66, label %21

21:                                               ; preds = %11
  %22 = call i32 @HMAC_CTX_copy_ex(ptr noundef nonnull %12, ptr noundef nonnull %14) #8
  %.not38 = icmp eq i32 %22, 0
  br i1 %.not38, label %66, label %23

23:                                               ; preds = %21
  %24 = call i32 @HMAC_Update(ptr noundef nonnull %12, ptr noundef %5, i64 noundef %6) #8
  %.not39 = icmp eq i32 %24, 0
  br i1 %.not39, label %66, label %25

25:                                               ; preds = %23
  %26 = call i32 @HMAC_Update(ptr noundef nonnull %12, ptr noundef %7, i64 noundef %8) #8
  %.not40 = icmp eq i32 %26, 0
  br i1 %.not40, label %66, label %27

27:                                               ; preds = %25
  %28 = call i32 @HMAC_Update(ptr noundef nonnull %12, ptr noundef %9, i64 noundef %10) #8
  %.not41 = icmp eq i32 %28, 0
  br i1 %.not41, label %66, label %29

29:                                               ; preds = %27
  %30 = call i32 @HMAC_Final(ptr noundef nonnull %12, ptr noundef nonnull %15, ptr noundef nonnull %16) #8
  %.not42 = icmp eq i32 %30, 0
  br i1 %.not42, label %66, label %.preheader

.preheader:                                       ; preds = %29
  call void @llvm.lifetime.start.p0(i64 4, ptr nonnull %17) #8
  call void @llvm.lifetime.start.p0(i64 64, ptr nonnull %18) #8
  %31 = call i32 @HMAC_CTX_copy_ex(ptr noundef nonnull %12, ptr noundef nonnull %14) #8
  %.not4359 = icmp eq i32 %31, 0
  br i1 %.not4359, label %.sink.split, label %.lr.ph62

.lr.ph62:                                         ; preds = %.preheader, %64
  %.03361 = phi ptr [ %59, %64 ], [ %0, %.preheader ]
  %.03560 = phi i64 [ %60, %64 ], [ %1, %.preheader ]
  %32 = load i32, ptr %16, align 4, !tbaa !66
  %33 = zext i32 %32 to i64
  %34 = call i32 @HMAC_Update(ptr noundef nonnull %12, ptr noundef nonnull %15, i64 noundef %33) #8
  %.not44 = icmp eq i32 %34, 0
  br i1 %.not44, label %.sink.split, label %35

35:                                               ; preds = %.lr.ph62
  %36 = icmp ugt i64 %.03560, %19
  br i1 %36, label %37, label %39

37:                                               ; preds = %35
  %38 = call i32 @HMAC_CTX_copy_ex(ptr noundef nonnull %13, ptr noundef nonnull %12) #8
  %.not45 = icmp eq i32 %38, 0
  br i1 %.not45, label %.sink.split, label %39

39:                                               ; preds = %37, %35
  %40 = call i32 @HMAC_Update(ptr noundef nonnull %12, ptr noundef %5, i64 noundef %6) #8
  %.not46 = icmp eq i32 %40, 0
  br i1 %.not46, label %.sink.split, label %41

41:                                               ; preds = %39
  %42 = call i32 @HMAC_Update(ptr noundef nonnull %12, ptr noundef %7, i64 noundef %8) #8
  %.not47 = icmp eq i32 %42, 0
  br i1 %.not47, label %.sink.split, label %43

43:                                               ; preds = %41
  %44 = call i32 @HMAC_Update(ptr noundef nonnull %12, ptr noundef %9, i64 noundef %10) #8
  %.not48 = icmp eq i32 %44, 0
  br i1 %.not48, label %.sink.split, label %45

45:                                               ; preds = %43
  %46 = call i32 @HMAC_Final(ptr noundef nonnull %12, ptr noundef nonnull %18, ptr noundef nonnull %17) #8
  %.not49 = icmp eq i32 %46, 0
  br i1 %.not49, label %.sink.split, label %47

47:                                               ; preds = %45
  %48 = load i32, ptr %17, align 4, !tbaa !66
  %49 = zext i32 %48 to i64
  %50 = icmp ult i64 %.03560, %49
  br i1 %50, label %.thread72, label %52

.thread72:                                        ; preds = %47
  %51 = trunc nuw i64 %.03560 to i32
  store i32 %51, ptr %17, align 4, !tbaa !66
  br label %.lr.ph.preheader

52:                                               ; preds = %47
  %.not70 = icmp eq i32 %48, 0
  br i1 %.not70, label %._crit_edge, label %.lr.ph.preheader

.lr.ph.preheader:                                 ; preds = %.thread72, %52
  %53 = phi i32 [ %51, %.thread72 ], [ %48, %52 ]
  %wide.trip.count = zext i32 %53 to i64
  br label %.lr.ph

.lr.ph:                                           ; preds = %.lr.ph.preheader, %.lr.ph
  %indvars.iv = phi i64 [ 0, %.lr.ph.preheader ], [ %indvars.iv.next, %.lr.ph ]
  %54 = getelementptr inbounds nuw [64 x i8], ptr %18, i64 0, i64 %indvars.iv
  %55 = load i8, ptr %54, align 1, !tbaa !70
  %56 = getelementptr inbounds nuw i8, ptr %.03361, i64 %indvars.iv
  %57 = load i8, ptr %56, align 1, !tbaa !70
  %58 = xor i8 %57, %55
  store i8 %58, ptr %56, align 1, !tbaa !70
  %indvars.iv.next = add nuw nsw i64 %indvars.iv, 1
  %exitcond.not = icmp eq i64 %indvars.iv.next, %wide.trip.count
  br i1 %exitcond.not, label %._crit_edge, label %.lr.ph, !llvm.loop !71

._crit_edge:                                      ; preds = %.lr.ph, %52
  %.pre-phi = phi i64 [ 0, %52 ], [ %wide.trip.count, %.lr.ph ]
  %59 = getelementptr inbounds nuw i8, ptr %.03361, i64 %.pre-phi
  %60 = sub i64 %.03560, %.pre-phi
  %61 = icmp eq i64 %60, 0
  br i1 %61, label %.sink.split, label %62

62:                                               ; preds = %._crit_edge
  %63 = call i32 @HMAC_Final(ptr noundef nonnull %13, ptr noundef nonnull %15, ptr noundef nonnull %16) #8
  %.not50 = icmp eq i32 %63, 0
  br i1 %.not50, label %.sink.split, label %64

64:                                               ; preds = %62
  call void @llvm.lifetime.end.p0(i64 64, ptr nonnull %18) #8
  call void @llvm.lifetime.end.p0(i64 4, ptr nonnull %17) #8
  call void @llvm.lifetime.start.p0(i64 4, ptr nonnull %17) #8
  call void @llvm.lifetime.start.p0(i64 64, ptr nonnull %18) #8
  %65 = call i32 @HMAC_CTX_copy_ex(ptr noundef nonnull %12, ptr noundef nonnull %14) #8
  %.not43 = icmp eq i32 %65, 0
  br i1 %.not43, label %.sink.split, label %.lr.ph62

.sink.split:                                      ; preds = %._crit_edge, %45, %43, %41, %39, %37, %.lr.ph62, %64, %62, %.preheader
  %.032.ph = phi i32 [ 0, %.preheader ], [ 0, %62 ], [ 0, %64 ], [ 0, %.lr.ph62 ], [ 0, %37 ], [ 0, %39 ], [ 0, %41 ], [ 0, %43 ], [ 0, %45 ], [ 1, %._crit_edge ]
  call void @llvm.lifetime.end.p0(i64 64, ptr nonnull %18) #8
  call void @llvm.lifetime.end.p0(i64 4, ptr nonnull %17) #8
  br label %66

66:                                               ; preds = %.sink.split, %29, %27, %25, %23, %21, %11
  %.032 = phi i32 [ 0, %29 ], [ 0, %27 ], [ 0, %25 ], [ 0, %23 ], [ 0, %21 ], [ 0, %11 ], [ %.032.ph, %.sink.split ]
  call void @HMAC_CTX_cleanup(ptr noundef nonnull %12) #8
  call void @HMAC_CTX_cleanup(ptr noundef nonnull %13) #8
  call void @HMAC_CTX_cleanup(ptr noundef nonnull %14) #8
  call void @OPENSSL_cleanse(ptr noundef nonnull %15, i64 noundef 64) #8
  call void @llvm.lifetime.end.p0(i64 4, ptr nonnull %16) #8
  call void @llvm.lifetime.end.p0(i64 64, ptr nonnull %15) #8
  call void @llvm.lifetime.end.p0(i64 104, ptr nonnull %14) #8
  call void @llvm.lifetime.end.p0(i64 104, ptr nonnull %13) #8
  call void @llvm.lifetime.end.p0(i64 104, ptr nonnull %12) #8
  ret i32 %.032
}